target datalayout = "e-m:e-p270:32:32-p271:32:32-p272:64:64-i64:64-i128:128-f80:128-n8:16:32:64-S128"
target triple = "x86_64-unknown-linux-gnu"

%"class.facebook::jsi::Value" = type { i32, %"union.facebook::jsi::Value::Data" }
%"union.facebook::jsi::Value::Data" = type { double }
%"class.std::__cxx11::basic_string" = type { %"struct.std::__cxx11::basic_string<char>::_Alloc_hider", i64, %union.anon }
%"struct.std::__cxx11::basic_string<char>::_Alloc_hider" = type { ptr }
%union.anon = type { i64, [8 x i8] }
%"class.facebook::jsi::Function" = type { %"class.facebook::jsi::Object" }
%"class.facebook::jsi::Object" = type { %"class.facebook::jsi::Pointer" }
%"class.facebook::jsi::Pointer" = type { ptr }

@_ZTIN8facebook3jsi7JSErrorE = constant { ptr, ptr, ptr } { ptr getelementptr inbounds (ptr, ptr @_ZTVN10__cxxabiv120__si_class_type_infoE, i64 2), ptr @_ZTSN8facebook3jsi7JSErrorE, ptr @_ZTIN8facebook3jsi12JSIExceptionE }, align 8
@.str.9 = private unnamed_addr constant [11 x i8] c"Object is \00", align 1
@.str.11 = private unnamed_addr constant [22 x i8] c", expected a function\00", align 1
@_ZN8facebook3jsi5ValueD1Ev = unnamed_addr alias void (ptr), ptr @_ZN8facebook3jsi5ValueD2Ev
@_ZN8facebook3jsi7JSErrorC1ERNS0_7RuntimeENSt7__cxx1112basic_stringIcSt11char_traitsIcESaIcEEE = unnamed_addr alias void (ptr, ptr, ptr), ptr @_ZN8facebook3jsi7JSErrorC2ERNS0_7RuntimeENSt7__cxx1112basic_stringIcSt11char_traitsIcESaIcEEE
@_ZN8facebook3jsi7JSErrorD1Ev = unnamed_addr alias void (ptr), ptr @_ZN8facebook3jsi7JSErrorD2Ev

; Function Attrs: mustprogress nounwind uwtable
define linkonce_odr void @_ZN8facebook3jsi7PointerC2EPNS0_7Runtime12PointerValueE(ptr noundef nonnull align 8 dereferenceable(8) %this, ptr noundef %ptr) unnamed_addr #0 comdat align 2 {
entry:
  %this.addr = alloca ptr, align 8
  %ptr.addr = alloca ptr, align 8
  store ptr %this, ptr %this.addr, align 8
  store ptr %ptr, ptr %ptr.addr, align 8
  %this1 = load ptr, ptr %this.addr, align 8
  %ptr_ = getelementptr inbounds %"class.facebook::jsi::Pointer", ptr %this1, i32 0, i32 0
  %0 = load ptr, ptr %ptr.addr, align 8
  store ptr %0, ptr %ptr_, align 8
  ret void
}

; Function Attrs: mustprogress nounwind uwtable
define linkonce_odr void @_ZN8facebook3jsi5Value4DataC2Ev(ptr noundef nonnull align 8 dereferenceable(8) %this) unnamed_addr #0 comdat align 2 {
entry:
  %this.addr = alloca ptr, align 8
  store ptr %this, ptr %this.addr, align 8
  ret void
}

; Function Attrs: mustprogress uwtable
define linkonce_odr void @_ZN8facebook3jsi8FunctionC2EPNS0_7Runtime12PointerValueE(ptr noundef nonnull align 8 dereferenceable(8) %this, ptr noundef %value) unnamed_addr #2 comdat align 2 {
entry:
  %this.addr = alloca ptr, align 8
  %value.addr = alloca ptr, align 8
  store ptr %this, ptr %this.addr, align 8
  store ptr %value, ptr %value.addr, align 8
  %this1 = load ptr, ptr %this.addr, align 8
  %0 = load ptr, ptr %value.addr, align 8
  call void @_ZN8facebook3jsi6ObjectCI2NS0_7PointerEEPNS0_7Runtime12PointerValueE(ptr noundef nonnull align 8 dereferenceable(8) %this1, ptr noundef %0)
  ret void
}

; Function Attrs: mustprogress uwtable
define linkonce_odr void @_ZN8facebook3jsi6ObjectCI2NS0_7PointerEEPNS0_7Runtime12PointerValueE(ptr noundef nonnull align 8 dereferenceable(8) %this, ptr noundef %0) unnamed_addr #2 comdat align 2 {
entry:
  %this.addr = alloca ptr, align 8
  %.addr = alloca ptr, align 8
  store ptr %this, ptr %this.addr, align 8
  store ptr %0, ptr %.addr, align 8
  %this1 = load ptr, ptr %this.addr, align 8
  %1 = load ptr, ptr %.addr, align 8
  call void @_ZN8facebook3jsi7PointerC2EPNS0_7Runtime12PointerValueE(ptr noundef nonnull align 8 dereferenceable(8) %this1, ptr noundef %1)
  ret void
}

; Function Attrs: mustprogress uwtable
define linkonce_odr void @_ZN8facebook3jsi5ValueC2ENS1_9ValueKindE(ptr noundef nonnull align 8 dereferenceable(16) %this, i32 noundef %kind) unnamed_addr #2 comdat align 2 {
entry:
  %this.addr = alloca ptr, align 8
  %kind.addr = alloca i32, align 4
  store ptr %this, ptr %this.addr, align 8
  store i32 %kind, ptr %kind.addr, align 4
  %this1 = load ptr, ptr %this.addr, align 8
  %kind_ = getelementptr inbounds %"class.facebook::jsi::Value", ptr %this1, i32 0, i32 0
  %0 = load i32, ptr %kind.addr, align 4
  store i32 %0, ptr %kind_, align 8
  %data_ = getelementptr inbounds %"class.facebook::jsi::Value", ptr %this1, i32 0, i32 1
  call void @_ZN8facebook3jsi5Value4DataC2Ev(ptr noundef nonnull align 8 dereferenceable(8) %data_)
  ret void
}

; Function Attrs: mustprogress uwtable
define linkonce_odr void @_ZNKR8facebook3jsi6Object11getFunctionERNS0_7RuntimeE(ptr noalias sret(%"class.facebook::jsi::Function") align 8 %agg.result, ptr noundef nonnull align 8 dereferenceable(8) %this, ptr noundef nonnull align 8 dereferenceable(8) %runtime) #2 comdat align 2 {
entry:
  %result.ptr = alloca ptr, align 8
  %this.addr = alloca ptr, align 8
  %runtime.addr = alloca ptr, align 8
  store ptr %agg.result, ptr %result.ptr, align 8
  store ptr %this, ptr %this.addr, align 8
  store ptr %runtime, ptr %runtime.addr, align 8
  %this1 = load ptr, ptr %this.addr, align 8
  %0 = load ptr, ptr %runtime.addr, align 8
  %ptr_ = getelementptr inbounds %"class.facebook::jsi::Pointer", ptr %this1, i32 0, i32 0
  %1 = load ptr, ptr %ptr_, align 8
  %vtable = load ptr, ptr %0, align 8
  %vfn = getelementptr inbounds ptr, ptr %vtable, i64 13
  %2 = load ptr, ptr %vfn, align 8
  %call = call noundef ptr %2(ptr noundef nonnull align 8 dereferenceable(8) %0, ptr noundef %1)
  call void @_ZN8facebook3jsi8FunctionC2EPNS0_7Runtime12PointerValueE(ptr noundef nonnull align 8 dereferenceable(8) %agg.result, ptr noundef %call)
  ret void
}

; Function Attrs: mustprogress uwtable
define linkonce_odr void @_ZStplIcSt11char_traitsIcESaIcEENSt7__cxx1112basic_stringIT_T0_T1_EEOS8_PKS5_(ptr noalias sret(%"class.std::__cxx11::basic_string") align 8 %agg.result, ptr noundef nonnull align 8 dereferenceable(32) %__lhs, ptr noundef %__rhs) #2 comdat {
entry:
  %result.ptr = alloca ptr, align 8
  %__lhs.addr = alloca ptr, align 8
  %__rhs.addr = alloca ptr, align 8
  store ptr %agg.result, ptr %result.ptr, align 8
  store ptr %__lhs, ptr %__lhs.addr, align 8
  store ptr %__rhs, ptr %__rhs.addr, align 8
  %0 = load ptr, ptr %__lhs.addr, align 8
  %1 = load ptr, ptr %__rhs.addr, align 8
  %call = call noundef nonnull align 8 dereferenceable(32) ptr @_ZNSt7__cxx1112basic_stringIcSt11char_traitsIcESaIcEE6appendEPKc(ptr noundef nonnull align 8 dereferenceable(32) %0, ptr noundef %1)
  call void @_ZNSt7__cxx1112basic_stringIcSt11char_traitsIcESaIcEEC1EOS4_(ptr noundef nonnull align 8 dereferenceable(32) %agg.result, ptr noundef nonnull align 8 dereferenceable(32) %call) #6
  ret void
}

; Function Attrs: mustprogress uwtable
define linkonce_odr void @_ZStplIcSt11char_traitsIcESaIcEENSt7__cxx1112basic_stringIT_T0_T1_EEPKS5_OS8_(ptr noalias sret(%"class.std::__cxx11::basic_string") align 8 %agg.result, ptr noundef %__lhs, ptr noundef nonnull align 8 dereferenceable(32) %__rhs) #2 comdat {
entry:
  %result.ptr = alloca ptr, align 8
  %__lhs.addr = alloca ptr, align 8
  %__rhs.addr = alloca ptr, align 8
  store ptr %agg.result, ptr %result.ptr, align 8
  store ptr %__lhs, ptr %__lhs.addr, align 8
  store ptr %__rhs, ptr %__rhs.addr, align 8
  %0 = load ptr, ptr %__rhs.addr, align 8
  %1 = load ptr, ptr %__lhs.addr, align 8
  %call = call noundef nonnull align 8 dereferenceable(32) ptr @_ZNSt7__cxx1112basic_stringIcSt11char_traitsIcESaIcEE6insertEmPKc(ptr noundef nonnull align 8 dereferenceable(32) %0, i64 noundef 0, ptr noundef %1)
  call void @_ZNSt7__cxx1112basic_stringIcSt11char_traitsIcESaIcEEC1EOS4_(ptr noundef nonnull align 8 dereferenceable(32) %agg.result, ptr noundef nonnull align 8 dereferenceable(32) %call) #6
  ret void
}

; Function Attrs: mustprogress uwtable
define linkonce_odr void @_ZN8facebook3jsi5ValueC2ERNS0_7RuntimeERKNS0_6ObjectE(ptr noundef nonnull align 8 dereferenceable(16) %this, ptr noundef nonnull align 8 dereferenceable(8) %runtime, ptr noundef nonnull align 8 dereferenceable(8) %obj) unnamed_addr #2 comdat align 2 personality ptr @__gxx_personality_v0 {
entry:
  %this.addr = alloca ptr, align 8
  %runtime.addr = alloca ptr, align 8
  %obj.addr = alloca ptr, align 8
  %exn.slot = alloca ptr, align 8
  %ehselector.slot = alloca i32, align 4
  store ptr %this, ptr %this.addr, align 8
  store ptr %runtime, ptr %runtime.addr, align 8
  store ptr %obj, ptr %obj.addr, align 8
  %this1 = load ptr, ptr %this.addr, align 8
  call void @_ZN8facebook3jsi5ValueC2ENS1_9ValueKindE(ptr noundef nonnull align 8 dereferenceable(16) %this1, i32 noundef 7)
  %data_ = getelementptr inbounds %"class.facebook::jsi::Value", ptr %this1, i32 0, i32 1
  %0 = load ptr, ptr %runtime.addr, align 8
  %1 = load ptr, ptr %obj.addr, align 8
  %ptr_ = getelementptr inbounds %"class.facebook::jsi::Pointer", ptr %1, i32 0, i32 0
  %2 = load ptr, ptr %ptr_, align 8
  %vtable = load ptr, ptr %0, align 8
  %vfn = getelementptr inbounds ptr, ptr %vtable, i64 13
  %3 = load ptr, ptr %vfn, align 8
  %call = invoke noundef ptr %3(ptr noundef nonnull align 8 dereferenceable(8) %0, ptr noundef %2)
          to label %invoke.cont unwind label %lpad

invoke.cont:                                      ; preds = %entry
  invoke void @_ZN8facebook3jsi6ObjectCI2NS0_7PointerEEPNS0_7Runtime12PointerValueE(ptr noundef nonnull align 8 dereferenceable(8) %data_, ptr noundef %call)
          to label %invoke.cont2 unwind label %lpad

invoke.cont2:                                     ; preds = %invoke.cont
  ret void

lpad:                                             ; preds = %invoke.cont, %entry
  %4 = landingpad { ptr, i32 }
          cleanup
  %5 = extractvalue { ptr, i32 } %4, 0
  store ptr %5, ptr %exn.slot, align 8
  %6 = extractvalue { ptr, i32 } %4, 1
  store i32 %6, ptr %ehselector.slot, align 4
  call void @_ZN8facebook3jsi5ValueD2Ev(ptr noundef nonnull align 8 dereferenceable(16) %this1) #6
  br label %eh.resume

eh.resume:                                        ; preds = %lpad
  %exn = load ptr, ptr %exn.slot, align 8
  %sel = load i32, ptr %ehselector.slot, align 4
  %lpad.val = insertvalue { ptr, i32 } poison, ptr %exn, 0
  %lpad.val3 = insertvalue { ptr, i32 } %lpad.val, i32 %sel, 1
  resume { ptr, i32 } %lpad.val3
}

; Function Attrs: mustprogress uwtable
define linkonce_odr noundef zeroext i1 @_ZNK8facebook3jsi6Object10isFunctionERNS0_7RuntimeE(ptr noundef nonnull align 8 dereferenceable(8) %this, ptr noundef nonnull align 8 dereferenceable(8) %runtime) #2 comdat align 2 {
entry:
  %this.addr = alloca ptr, align 8
  %runtime.addr = alloca ptr, align 8
  store ptr %this, ptr %this.addr, align 8
  store ptr %runtime, ptr %runtime.addr, align 8
  %this1 = load ptr, ptr %this.addr, align 8
  %0 = load ptr, ptr %runtime.addr, align 8
  %vtable = load ptr, ptr %0, align 8
  %vfn = getelementptr inbounds ptr, ptr %vtable, i64 47
  %1 = load ptr, ptr %vfn, align 8
  %call = call noundef zeroext i1 %1(ptr noundef nonnull align 8 dereferenceable(8) %0, ptr noundef nonnull align 8 dereferenceable(8) %this1)
  ret i1 %call
}

; Function Attrs: mustprogress uwtable
define void @_ZNKR8facebook3jsi6Object10asFunctionERNS0_7RuntimeE(ptr noalias sret(%"class.facebook::jsi::Function") align 8 %agg.result, ptr noundef nonnull align 8 dereferenceable(8) %this, ptr noundef nonnull align 8 dereferenceable(8) %runtime) #2 align 2 personality ptr @__gxx_personality_v0 {
entry:
  %result.ptr = alloca ptr, align 8
  %this.addr = alloca ptr, align 8
  %runtime.addr = alloca ptr, align 8
  %agg.tmp = alloca %"class.std::__cxx11::basic_string", align 8
  %ref.tmp = alloca %"class.std::__cxx11::basic_string", align 8
  %ref.tmp2 = alloca %"class.std::__cxx11::basic_string", align 8
  %ref.tmp3 = alloca %"class.facebook::jsi::Value", align 8
  %exn.slot = alloca ptr, align 8
  %ehselector.slot = alloca i32, align 4
  %cleanup.isactive = alloca i1, align 1
  store ptr %agg.result, ptr %result.ptr, align 8
  store ptr %this, ptr %this.addr, align 8
  store ptr %runtime, ptr %runtime.addr, align 8
  %this1 = load ptr, ptr %this.addr, align 8
  %0 = load ptr, ptr %runtime.addr, align 8
  %call = call noundef zeroext i1 @_ZNK8facebook3jsi6Object10isFunctionERNS0_7RuntimeE(ptr noundef nonnull align 8 dereferenceable(8) %this1, ptr noundef nonnull align 8 dereferenceable(8) %0)
  br i1 %call, label %if.end, label %if.then

if.then:                                          ; preds = %entry
  store i1 true, ptr %cleanup.isactive, align 1
  %exception = call ptr @__cxa_allocate_exception(i64 120) #6
  %1 = load ptr, ptr %runtime.addr, align 8
  %2 = load ptr, ptr %runtime.addr, align 8
  invoke void @_ZN8facebook3jsi5ValueC2ERNS0_7RuntimeERKNS0_6ObjectE(ptr noundef nonnull align 8 dereferenceable(16) %ref.tmp3, ptr noundef nonnull align 8 dereferenceable(8) %2, ptr noundef nonnull align 8 dereferenceable(8) %this1)
          to label %invoke.cont unwind label %lpad

invoke.cont:                                      ; preds = %if.then
  %3 = load ptr, ptr %runtime.addr, align 8
  invoke void @_ZN8facebook3jsi12_GLOBAL__N_112kindToStringB5cxx11ERKNS0_5ValueEPNS0_7RuntimeE(ptr sret(%"class.std::__cxx11::basic_string") align 8 %ref.tmp2, ptr noundef nonnull align 8 dereferenceable(16) %ref.tmp3, ptr noundef %3)
          to label %invoke.cont5 unwind label %lpad4

invoke.cont5:                                     ; preds = %invoke.cont
  invoke void @_ZStplIcSt11char_traitsIcESaIcEENSt7__cxx1112basic_stringIT_T0_T1_EEPKS5_OS8_(ptr sret(%"class.std::__cxx11::basic_string") align 8 %ref.tmp, ptr noundef @.str.9, ptr noundef nonnull align 8 dereferenceable(32) %ref.tmp2)
          to label %invoke.cont7 unwind label %lpad6

invoke.cont7:                                     ; preds = %invoke.cont5
  invoke void @_ZStplIcSt11char_traitsIcESaIcEENSt7__cxx1112basic_stringIT_T0_T1_EEOS8_PKS5_(ptr sret(%"class.std::__cxx11::basic_string") align 8 %agg.tmp, ptr noundef nonnull align 8 dereferenceable(32) %ref.tmp, ptr noundef @.str.11)
          to label %invoke.cont9 unwind label %lpad8

invoke.cont9:                                     ; preds = %invoke.cont7
  invoke void @_ZN8facebook3jsi7JSErrorC1ERNS0_7RuntimeENSt7__cxx1112basic_stringIcSt11char_traitsIcESaIcEEE(ptr noundef nonnull align 8 dereferenceable(120) %exception, ptr noundef nonnull align 8 dereferenceable(8) %1, ptr noundef %agg.tmp)
          to label %invoke.cont11 unwind label %lpad10

invoke.cont11:                                    ; preds = %invoke.cont9
  store i1 false, ptr %cleanup.isactive, align 1
  invoke void @__cxa_throw(ptr %exception, ptr @_ZTIN8facebook3jsi7JSErrorE, ptr @_ZN8facebook3jsi7JSErrorD1Ev) #16
          to label %unreachable unwind label %lpad10

lpad:                                             ; preds = %if.then
  %4 = landingpad { ptr, i32 }
          cleanup
  %5 = extractvalue { ptr, i32 } %4, 0
  store ptr %5, ptr %exn.slot, align 8
  %6 = extractvalue { ptr, i32 } %4, 1
  store i32 %6, ptr %ehselector.slot, align 4
  br label %ehcleanup14

lpad4:                                            ; preds = %invoke.cont
  %7 = landingpad { ptr, i32 }
          cleanup
  %8 = extractvalue { ptr, i32 } %7, 0
  store ptr %8, ptr %exn.slot, align 8
  %9 = extractvalue { ptr, i32 } %7, 1
  store i32 %9, ptr %ehselector.slot, align 4
  br label %ehcleanup13

lpad6:                                            ; preds = %invoke.cont5
  %10 = landingpad { ptr, i32 }
          cleanup
  %11 = extractvalue { ptr, i32 } %10, 0
  store ptr %11, ptr %exn.slot, align 8
  %12 = extractvalue { ptr, i32 } %10, 1
  store i32 %12, ptr %ehselector.slot, align 4
  br label %ehcleanup12

lpad8:                                            ; preds = %invoke.cont7
  %13 = landingpad { ptr, i32 }
          cleanup
  %14 = extractvalue { ptr, i32 } %13, 0
  store ptr %14, ptr %exn.slot, align 8
  %15 = extractvalue { ptr, i32 } %13, 1
  store i32 %15, ptr %ehselector.slot, align 4
  br label %ehcleanup

lpad10:                                           ; preds = %invoke.cont11, %invoke.cont9
  %16 = landingpad { ptr, i32 }
          cleanup
  %17 = extractvalue { ptr, i32 } %16, 0
  store ptr %17, ptr %exn.slot, align 8
  %18 = extractvalue { ptr, i32 } %16, 1
  store i32 %18, ptr %ehselector.slot, align 4
  call void @_ZNSt7__cxx1112basic_stringIcSt11char_traitsIcESaIcEED1Ev(ptr noundef nonnull align 8 dereferenceable(32) %agg.tmp) #6
  br label %ehcleanup

ehcleanup:                                        ; preds = %lpad10, %lpad8
  call void @_ZNSt7__cxx1112basic_stringIcSt11char_traitsIcESaIcEED1Ev(ptr noundef nonnull align 8 dereferenceable(32) %ref.tmp) #6
  br label %ehcleanup12

ehcleanup12:                                      ; preds = %ehcleanup, %lpad6
  call void @_ZNSt7__cxx1112basic_stringIcSt11char_traitsIcESaIcEED1Ev(ptr noundef nonnull align 8 dereferenceable(32) %ref.tmp2) #6
  br label %ehcleanup13

ehcleanup13:                                      ; preds = %ehcleanup12, %lpad4
  call void @_ZN8facebook3jsi5ValueD1Ev(ptr noundef nonnull align 8 dereferenceable(16) %ref.tmp3) #6
  br label %ehcleanup14

ehcleanup14:                                      ; preds = %ehcleanup13, %lpad
  %cleanup.is_active = load i1, ptr %cleanup.isactive, align 1
  br i1 %cleanup.is_active, label %cleanup.action, label %cleanup.done

cleanup.action:                                   ; preds = %ehcleanup14
  call void @__cxa_free_exception(ptr %exception) #6
  br label %cleanup.done

cleanup.done:                                     ; preds = %cleanup.action, %ehcleanup14
  br label %eh.resume

if.end:                                           ; preds = %entry
  %19 = load ptr, ptr %runtime.addr, align 8
  call void @_ZNKR8facebook3jsi6Object11getFunctionERNS0_7RuntimeE(ptr sret(%"class.facebook::jsi::Function") align 8 %agg.result, ptr noundef nonnull align 8 dereferenceable(8) %this1, ptr noundef nonnull align 8 dereferenceable(8) %19)
  ret void

eh.resume:                                        ; preds = %cleanup.done
  %exn = load ptr, ptr %exn.slot, align 8
  %sel = load i32, ptr %ehselector.slot, align 4
  %lpad.val = insertvalue { ptr, i32 } poison, ptr %exn, 0
  %lpad.val15 = insertvalue { ptr, i32 } %lpad.val, i32 %sel, 1
  resume { ptr, i32 } %lpad.val15

unreachable:                                      ; preds = %invoke.cont11
  unreachable
}